target datalayout = "e-m:e-p270:32:32-p271:32:32-p272:64:64-i64:64-i128:128-f80:128-n8:16:32:64-S128"
target triple = "x86_64-pc-linux-gnu"

%struct.Intb_Man_t_ = type { ptr, ptr, i32, i32, i32, i32, i32, i32, i32, ptr, ptr, ptr, ptr, ptr, ptr, ptr, ptr, i32, i32, ptr, ptr, ptr, i32, i32, i64, i64, i64 }

; Function Attrs: nounwind uwtable
define ptr @Intb_ManAlloc() #0 {
  %1 = alloca ptr, align 8
  call void @llvm.lifetime.start.p0(i64 8, ptr %1) #9
  %2 = call noalias ptr @malloc(i64 noundef 176) #10
  store ptr %2, ptr %1, align 8, !tbaa !3
  %3 = load ptr, ptr %1, align 8, !tbaa !3
  call void @llvm.memset.p0.i64(ptr align 8 %3, i8 0, i64 176, i1 false)
  %4 = load ptr, ptr %1, align 8, !tbaa !3
  %5 = getelementptr inbounds nuw %struct.Intb_Man_t_, ptr %4, i32 0, i32 23
  store i32 65536, ptr %5, align 4, !tbaa !8
  %6 = load ptr, ptr %1, align 8, !tbaa !3
  %7 = getelementptr inbounds nuw %struct.Intb_Man_t_, ptr %6, i32 0, i32 23
  %8 = load i32, ptr %7, align 4, !tbaa !8
  %9 = sext i32 %8 to i64
  %10 = mul i64 4, %9
  %11 = call noalias ptr @malloc(i64 noundef %10) #10
  %12 = load ptr, ptr %1, align 8, !tbaa !3
  %13 = getelementptr inbounds nuw %struct.Intb_Man_t_, ptr %12, i32 0, i32 21
  store ptr %11, ptr %13, align 8, !tbaa !20
  %14 = load ptr, ptr %1, align 8, !tbaa !3
  %15 = getelementptr inbounds nuw %struct.Intb_Man_t_, ptr %14, i32 0, i32 4
  store i32 0, ptr %15, align 8, !tbaa !21
  %16 = load ptr, ptr %1, align 8, !tbaa !3
  %17 = getelementptr inbounds nuw %struct.Intb_Man_t_, ptr %16, i32 0, i32 3
  store i32 1, ptr %17, align 4, !tbaa !22
  %18 = load ptr, ptr %1, align 8, !tbaa !3
  call void @llvm.lifetime.end.p0(i64 8, ptr %1) #9
  ret ptr %18
}