; Function Attrs: mustprogress nofree nounwind willreturn memory(write, argmem: none, inaccessiblemem: readwrite) uwtable
define noalias noundef ptr @Intb_ManAlloc() local_unnamed_addr #0 {
  %calloc = tail call dereferenceable_or_null(176) ptr @calloc(i64 1, i64 176)
  %1 = getelementptr inbounds nuw i8, ptr %calloc, i64 148
  store i32 65536, ptr %1, align 4, !tbaa !3
  %2 = tail call noalias dereferenceable_or_null(262144) ptr @malloc(i64 noundef 262144) #18
  %3 = getelementptr inbounds nuw i8, ptr %calloc, i64 136
  store ptr %2, ptr %3, align 8, !tbaa !18
  %4 = getelementptr inbounds nuw i8, ptr %calloc, i64 20
  store i32 1, ptr %4, align 4, !tbaa !19
  ret ptr %calloc
}